; ModuleID = 'source-C-CXX/32/13.c'
source_filename = "source-C-CXX/32/13.c"
target datalayout = "e-m:e-p270:32:32-p271:32:32-p272:64:64-i64:64-f80:128-n8:16:32:64-S128"
target triple = "x86_64-pc-linux-gnu"

@.str = private unnamed_addr constant [3 x i8] c"%d\00", align 1
@.str.1 = private unnamed_addr constant [3 x i8] c"%s\00", align 1

; Function Attrs: nofree nounwind sspstrong uwtable
define dso_local i32 @main() local_unnamed_addr #0 {
  %1 = alloca i32, align 4
  %2 = alloca [1000 x [300 x i8]], align 16
  %3 = bitcast i32* %1 to i8*
  call void @llvm.lifetime.start.p0i8(i64 4, i8* nonnull %3) #5
  %4 = getelementptr inbounds [1000 x [300 x i8]], [1000 x [300 x i8]]* %2, i64 0, i64 0, i64 0
  call void @llvm.lifetime.start.p0i8(i64 300000, i8* nonnull %4) #5
  %5 = call i32 (i8*, ...) @__isoc99_scanf(i8* getelementptr inbounds ([3 x i8], [3 x i8]* @.str, i64 0, i64 0), i32* nonnull %1)
  %6 = load i32, i32* %1, align 4, !tbaa !5
  %7 = icmp sgt i32 %6, 0
  br i1 %7, label %10, label %58

8:                                                ; preds = %10
  %9 = icmp sgt i32 %15, 0
  br i1 %9, label %18, label %58

10:                                               ; preds = %0, %10
  %11 = phi i64 [ %14, %10 ], [ 0, %0 ]
  %12 = getelementptr inbounds [1000 x [300 x i8]], [1000 x [300 x i8]]* %2, i64 0, i64 %11, i64 0
  %13 = call i32 (i8*, ...) @__isoc99_scanf(i8* getelementptr inbounds ([3 x i8], [3 x i8]* @.str.1, i64 0, i64 0), i8* nonnull %12)
  %14 = add nuw nsw i64 %11, 1
  %15 = load i32, i32* %1, align 4, !tbaa !5
  %16 = sext i32 %15 to i64
  %17 = icmp slt i64 %14, %16
  br i1 %17, label %10, label %8, !llvm.loop !9

18:                                               ; preds = %8, %52
  %19 = phi i64 [ %54, %52 ], [ 0, %8 ]
  %20 = getelementptr inbounds [1000 x [300 x i8]], [1000 x [300 x i8]]* %2, i64 0, i64 %19, i64 0
  %21 = call i64 @strlen(i8* noundef nonnull %20) #6
  %22 = icmp eq i64 %21, 0
  br i1 %22, label %52, label %23

23:                                               ; preds = %18, %48
  %24 = phi i64 [ %49, %48 ], [ 0, %18 ]
  %25 = getelementptr inbounds [1000 x [300 x i8]], [1000 x [300 x i8]]* %2, i64 0, i64 %19, i64 %24
  %26 = load i8, i8* %25, align 1, !tbaa !11
  %27 = icmp eq i8 %26, 65
  br i1 %27, label %28, label %31

28:                                               ; preds = %23
  %29 = call i32 @putchar(i32 84)
  %30 = load i8, i8* %25, align 1, !tbaa !11
  br label %31

31:                                               ; preds = %28, %23
  %32 = phi i8 [ %30, %28 ], [ %26, %23 ]
  %33 = icmp eq i8 %32, 84
  br i1 %33, label %34, label %37

34:                                               ; preds = %31
  %35 = call i32 @putchar(i32 65)
  %36 = load i8, i8* %25, align 1, !tbaa !11
  br label %37

37:                                               ; preds = %34, %31
  %38 = phi i8 [ %36, %34 ], [ %32, %31 ]
  %39 = icmp eq i8 %38, 67
  br i1 %39, label %40, label %43

40:                                               ; preds = %37
  %41 = call i32 @putchar(i32 71)
  %42 = load i8, i8* %25, align 1, !tbaa !11
  br label %43

43:                                               ; preds = %40, %37
  %44 = phi i8 [ %42, %40 ], [ %38, %37 ]
  %45 = icmp eq i8 %44, 71
  br i1 %45, label %46, label %48

46:                                               ; preds = %43
  %47 = call i32 @putchar(i32 67)
  br label %48

48:                                               ; preds = %43, %46
  %49 = add nuw i64 %24, 1
  %50 = call i64 @strlen(i8* noundef nonnull %20) #6
  %51 = icmp ugt i64 %50, %49
  br i1 %51, label %23, label %52, !llvm.loop !12

52:                                               ; preds = %48, %18
  %53 = call i32 @putchar(i32 10)
  %54 = add nuw nsw i64 %19, 1
  %55 = load i32, i32* %1, align 4, !tbaa !5
  %56 = sext i32 %55 to i64
  %57 = icmp slt i64 %54, %56
  br i1 %57, label %18, label %58, !llvm.loop !13

58:                                               ; preds = %52, %0, %8
  call void @llvm.lifetime.end.p0i8(i64 300000, i8* nonnull %4) #5
  call void @llvm.lifetime.end.p0i8(i64 4, i8* nonnull %3) #5
  ret i32 0
}

; Function Attrs: argmemonly mustprogress nofree nosync nounwind willreturn
declare void @llvm.lifetime.start.p0i8(i64 immarg, i8* nocapture) #1

; Function Attrs: nofree nounwind
declare noundef i32 @__isoc99_scanf(i8* nocapture noundef readonly, ...) local_unnamed_addr #2

; Function Attrs: argmemonly mustprogress nofree nounwind readonly willreturn
declare i64 @strlen(i8* nocapture) local_unnamed_addr #3

; Function Attrs: argmemonly mustprogress nofree nosync nounwind willreturn
declare void @llvm.lifetime.end.p0i8(i64 immarg, i8* nocapture) #1

; Function Attrs: nofree nounwind
declare noundef i32 @putchar(i32 noundef) local_unnamed_addr #4


!llvm.module.flags = !{!0, !1, !2, !3}
!llvm.ident = !{!4}

!0 = !{i32 1, !"wchar_size", i32 4}
!1 = !{i32 7, !"PIC Level", i32 2}
!2 = !{i32 7, !"PIE Level", i32 2}
!3 = !{i32 7, !"uwtable", i32 1}
!4 = !{!"clang version 13.0.0"}
!5 = !{!6, !6, i64 0}
!6 = !{!"int", !7, i64 0}
!7 = !{!"omnipotent char", !8, i64 0}
!8 = !{!"Simple C/C++ TBAA"}
!9 = distinct !{!9, !10}
!10 = !{!"llvm.loop.mustprogress"}
!11 = !{!7, !7, i64 0}
!12 = distinct !{!12, !10}
!13 = distinct !{!13, !10}
